target datalayout = "e-m:e-p270:32:32-p271:32:32-p272:64:64-i64:64-i128:128-f80:128-n8:16:32:64-S128"
target triple = "x86_64-pc-linux-gnu"

%struct.ARKodeMemRec = type { ptr, double, ptr, i32, i32, double, double, ptr, i32, double, ptr, i32, i32, ptr, ptr, i32, ptr, ptr, i32, ptr, ptr, ptr, ptr, ptr, ptr, ptr, ptr, ptr, ptr, ptr, ptr, ptr, ptr, ptr, i32, ptr, ptr, i32, ptr, i32, ptr, ptr, ptr, ptr, ptr, ptr, ptr, ptr, ptr, ptr, ptr, ptr, ptr, ptr, ptr, ptr, ptr, ptr, ptr, ptr, ptr, ptr, ptr, ptr, ptr, ptr, i32, ptr, ptr, ptr, ptr, ptr, ptr, ptr, i32, ptr, ptr, ptr, i32, ptr, ptr, ptr, ptr, ptr, ptr, ptr, i32, i32, i32, i32, double, double, double, double, double, double, double, double, double, double, i32, ptr, i64, i32, i32, i32, i32, i64, i64, i32, i64, i64, i64, i64, i64, i64, i64, double, double, double, double, double, i32, double, double, i32, i32, i32, i32, i32, i32, i32, i32, ptr, i32, ptr, ptr, ptr, ptr, i32, i32, i32 }

@.str = private unnamed_addr constant [115 x i8] c"generated/home/dtcxzyw/WorkSpace/Projects/compilers/llvm-opt-benchmark/bench/sundials/sundials/src/arkode/arkode.c\00", align 1
@.str.135 = private unnamed_addr constant [28 x i8] c"ARKodeMem structure is NULL\00", align 1
@.str.136 = private unnamed_addr constant [34 x i8] c"ARKodeInterpMem structure is NULL\00", align 1
@__func__.arkPredict_CutoffOrder = private unnamed_addr constant [23 x i8] c"arkPredict_CutoffOrder\00", align 1

; Function Attrs: nounwind uwtable
define i32 @arkPredict_CutoffOrder(ptr noundef %0, double noundef %1, ptr noundef %2) #0 {
  %4 = alloca i32, align 4
  %5 = alloca ptr, align 8
  %6 = alloca double, align 8
  %7 = alloca ptr, align 8
  %8 = alloca i32, align 4
  %9 = alloca double, align 8
  %10 = alloca i32, align 4
  store ptr %0, ptr %5, align 8, !tbaa !11
  store double %1, ptr %6, align 8, !tbaa !9
  store ptr %2, ptr %7, align 8, !tbaa !7
  call void @llvm.lifetime.start.p0(i64 4, ptr %8) #10
  call void @llvm.lifetime.start.p0(i64 8, ptr %9) #10
  store double 5.000000e-01, ptr %9, align 8, !tbaa !9
  %11 = load ptr, ptr %5, align 8, !tbaa !11
  %12 = icmp eq ptr %11, null
  br i1 %12, label %13, label %14

13:                                               ; preds = %3
  call void (ptr, i32, i32, ptr, ptr, ptr, ...) @arkProcessError(ptr noundef null, i32 noundef -21, i32 noundef 3034, ptr noundef @__func__.arkPredict_CutoffOrder, ptr noundef @.str, ptr noundef @.str.135)
  store i32 -21, ptr %4, align 4
  store i32 1, ptr %10, align 4
  br label %36

14:                                               ; preds = %3
  %15 = load ptr, ptr %5, align 8, !tbaa !11
  %16 = getelementptr inbounds nuw %struct.ARKodeMemRec, ptr %15, i32 0, i32 85
  %17 = load ptr, ptr %16, align 8, !tbaa !39
  %18 = icmp eq ptr %17, null
  br i1 %18, label %19, label %21

19:                                               ; preds = %14
  %20 = load ptr, ptr %5, align 8, !tbaa !11
  call void (ptr, i32, i32, ptr, ptr, ptr, ...) @arkProcessError(ptr noundef %20, i32 noundef -21, i32 noundef 3040, ptr noundef @__func__.arkPredict_CutoffOrder, ptr noundef @.str, ptr noundef @.str.136)
  store i32 -21, ptr %4, align 4
  store i32 1, ptr %10, align 4
  br label %36

21:                                               ; preds = %14
  %22 = load double, ptr %6, align 8, !tbaa !9
  %23 = load double, ptr %9, align 8, !tbaa !9
  %24 = fcmp ole double %22, %23
  br i1 %24, label %25, label %26

25:                                               ; preds = %21
  store i32 5, ptr %8, align 4, !tbaa !38
  br label %27

26:                                               ; preds = %21
  store i32 1, ptr %8, align 4, !tbaa !38
  br label %27

27:                                               ; preds = %26, %25
  %28 = load ptr, ptr %5, align 8, !tbaa !11
  %29 = load ptr, ptr %5, align 8, !tbaa !11
  %30 = getelementptr inbounds nuw %struct.ARKodeMemRec, ptr %29, i32 0, i32 85
  %31 = load ptr, ptr %30, align 8, !tbaa !39
  %32 = load double, ptr %6, align 8, !tbaa !9
  %33 = load i32, ptr %8, align 4, !tbaa !38
  %34 = load ptr, ptr %7, align 8, !tbaa !7
  %35 = call i32 @arkInterpEvaluate(ptr noundef %28, ptr noundef %31, double noundef %32, i32 noundef 0, i32 noundef %33, ptr noundef %34)
  store i32 %35, ptr %4, align 4
  store i32 1, ptr %10, align 4
  br label %36

36:                                               ; preds = %27, %19, %13
  call void @llvm.lifetime.end.p0(i64 8, ptr %9) #10
  call void @llvm.lifetime.end.p0(i64 4, ptr %8) #10
  %37 = load i32, ptr %4, align 4
  ret i32 %37
}